; Function Attrs: mustprogress uwtable
define dso_local noundef nonnull align 8 dereferenceable(56) ptr @_ZN8V3Number6opGteSERKS_S1_(ptr noundef nonnull returned align 8 dereferenceable(56) %0, ptr noundef nonnull align 8 dereferenceable(56) %1, ptr noundef nonnull align 8 dereferenceable(56) %2) local_unnamed_addr #3 align 2 {
  %4 = icmp eq ptr %0, %1
  %5 = icmp eq ptr %0, %2
  %.not11 = or i1 %4, %5
  br i1 %.not11, label %6, label %10, !prof !134

6:                                                ; preds = %3
  %7 = tail call noundef nonnull align 8 dereferenceable(112) ptr @_ZN7V3Error19v3errorPrepFileLineB5cxx11E11V3ErrorCodePKci(i8 4, ptr noundef nonnull @.str.15, i32 noundef 1803)
  %8 = tail call noundef nonnull align 8 dereferenceable(112) ptr @_ZN7V3Error10v3errorStrB5cxx11Ev()
  %9 = tail call noundef nonnull align 8 dereferenceable(8) ptr @_ZStlsISt11char_traitsIcEERSt13basic_ostreamIcT_ES5_PKc(ptr noundef nonnull align 8 dereferenceable(8) %8, ptr noundef nonnull @.str.51)
  tail call void @_ZNK8V3Number15v3errorEndFatalERKNSt7__cxx1119basic_ostringstreamIcSt11char_traitsIcESaIcEEE(ptr noundef nonnull align 8 dereferenceable(56) %0, ptr noundef nonnull align 8 dereferenceable(112) %9) #34
  unreachable

10:                                               ; preds = %3
  %11 = tail call noundef nonnull align 8 dereferenceable(56) ptr @_ZN8V3Number4opEqERKS_S1_(ptr noundef nonnull align 8 dereferenceable(56) %0, ptr noundef nonnull align 8 dereferenceable(56) %1, ptr noundef nonnull align 8 dereferenceable(56) %2)
  %12 = tail call noundef zeroext i1 @_ZNK8V3Number9isNeqZeroEv(ptr noundef nonnull align 8 dereferenceable(56) %0)
  br i1 %12, label %15, label %13

13:                                               ; preds = %10
  %14 = tail call noundef nonnull align 8 dereferenceable(56) ptr @_ZN8V3Number5opGtSERKS_S1_(ptr noundef nonnull align 8 dereferenceable(56) %0, ptr noundef nonnull align 8 dereferenceable(56) %1, ptr noundef nonnull align 8 dereferenceable(56) %2)
  br label %15

15:                                               ; preds = %10, %13
  ret ptr %0
}